target datalayout = "e-m:e-p270:32:32-p271:32:32-p272:64:64-i64:64-i128:128-f80:128-n8:16:32:64-S128"
target triple = "x86_64-unknown-linux-gnu"

; Function Attrs: mustprogress uwtable
define noundef double @_ZNK8QuantLib14MfStateProcess12stdDeviationEddd(ptr noundef nonnull align 8 dereferenceable(176) %this, double noundef %t, double noundef %x0, double noundef %dt) unnamed_addr #2 align 2 {
entry:
  %this.addr = alloca ptr, align 8
  %t.addr = alloca double, align 8
  %x0.addr = alloca double, align 8
  %dt.addr = alloca double, align 8
  store ptr %this, ptr %this.addr, align 8, !tbaa !3
  store double %t, ptr %t.addr, align 8, !tbaa !12
  store double %x0, ptr %x0.addr, align 8, !tbaa !12
  store double %dt, ptr %dt.addr, align 8, !tbaa !12
  %this1 = load ptr, ptr %this.addr, align 8
  %0 = load double, ptr %t.addr, align 8, !tbaa !12
  %1 = load double, ptr %x0.addr, align 8, !tbaa !12
  %2 = load double, ptr %dt.addr, align 8, !tbaa !12
  %vtable = load ptr, ptr %this1, align 8, !tbaa !14
  %vfn = getelementptr inbounds ptr, ptr %vtable, i64 20
  %3 = load ptr, ptr %vfn, align 8
  %call = call noundef double %3(ptr noundef nonnull align 8 dereferenceable(176) %this1, double noundef %0, double noundef %1, double noundef %2)
  %call2 = call double @sqrt(double noundef %call) #11, !tbaa !41
  ret double %call2
}