; Function Attrs: mustprogress uwtable
define noundef double @_ZNK8QuantLib14MfStateProcess12stdDeviationEddd(ptr noundef nonnull align 8 dereferenceable(176) %this, double noundef %t, double noundef %x0, double noundef %dt) unnamed_addr #6 align 2 {
entry:
  %vtable = load ptr, ptr %this, align 8, !tbaa !28
  %vfn = getelementptr inbounds i8, ptr %vtable, i64 160
  %0 = load ptr, ptr %vfn, align 8
  %call = tail call noundef double %0(ptr noundef nonnull align 8 dereferenceable(176) %this, double noundef %t, double noundef %x0, double noundef %dt)
  %call2 = tail call double @sqrt(double noundef %call) #27, !tbaa !69
  ret double %call2
}